target datalayout = "e-m:e-p270:32:32-p271:32:32-p272:64:64-i64:64-i128:128-f80:128-n8:16:32:64-S128"
target triple = "x86_64-pc-linux-gnu"

; Function Attrs: alwaysinline nounwind
define internal ptr @memcpy.inline(ptr noalias nonnull %0, ptr noalias nonnull %1, i64 %2) #6 {
  %4 = alloca ptr, align 8
  %5 = alloca ptr, align 8
  %6 = alloca i64, align 8
  store ptr %0, ptr %4, align 8, !tbaa !23
  store ptr %1, ptr %5, align 8, !tbaa !23
  store i64 %2, ptr %6, align 8, !tbaa !12
  %7 = load ptr, ptr %4, align 8, !tbaa !23
  %8 = load ptr, ptr %5, align 8, !tbaa !23
  %9 = load i64, ptr %6, align 8, !tbaa !12
  %10 = load ptr, ptr %4, align 8, !tbaa !23
  %11 = call i64 @llvm.objectsize.i64.p0(ptr %10, i1 false, i1 true, i1 false)
  %12 = call ptr @__memcpy_chk(ptr noundef %7, ptr noundef %8, i64 noundef %9, i64 noundef %11) #25
  ret ptr %12
}

; Function Attrs: inlinehint nounwind sspstrong memory(argmem: readwrite, inaccessiblemem: readwrite) uwtable
define internal nonnull ptr @ruby_nonempty_memcpy(ptr noundef nonnull %0, ptr noundef %1, i64 noundef %2) #9 {
  %4 = alloca ptr, align 8
  %5 = alloca ptr, align 8
  %6 = alloca ptr, align 8
  %7 = alloca i64, align 8
  store ptr %0, ptr %5, align 8, !tbaa !23
  store ptr %1, ptr %6, align 8, !tbaa !23
  store i64 %2, ptr %7, align 8, !tbaa !12
  %8 = load i64, ptr %7, align 8, !tbaa !12
  %9 = icmp ne i64 %8, 0
  br i1 %9, label %10, label %15

10:                                               ; preds = %3
  %11 = load ptr, ptr %5, align 8, !tbaa !23
  %12 = load ptr, ptr %6, align 8, !tbaa !23
  %13 = load i64, ptr %7, align 8, !tbaa !12
  %14 = call ptr @memcpy.inline(ptr noundef %11, ptr noundef %12, i64 noundef %13) #25
  store ptr %14, ptr %4, align 8
  br label %17

15:                                               ; preds = %3
  %16 = load ptr, ptr %5, align 8, !tbaa !23
  store ptr %16, ptr %4, align 8
  br label %17

17:                                               ; preds = %15, %10
  %18 = load ptr, ptr %4, align 8
  ret ptr %18
}

; Function Attrs: nounwind sspstrong uwtable
define internal ptr @allocate_converted_string(ptr noundef %0, ptr noundef %1, ptr noundef %2, i64 noundef %3, ptr noundef %4, i64 noundef %5, ptr noundef %6) #0 {
  %8 = alloca ptr, align 8
  %9 = alloca ptr, align 8
  %10 = alloca ptr, align 8
  %11 = alloca ptr, align 8
  %12 = alloca i64, align 8
  %13 = alloca ptr, align 8
  %14 = alloca i64, align 8
  %15 = alloca ptr, align 8
  %16 = alloca ptr, align 8
  %17 = alloca i64, align 8
  %18 = alloca i64, align 8
  %19 = alloca ptr, align 8
  %20 = alloca i32, align 4
  %21 = alloca ptr, align 8
  %22 = alloca ptr, align 8
  %23 = alloca i32, align 4
  %24 = alloca ptr, align 8
  store ptr %0, ptr %9, align 8, !tbaa !21
  store ptr %1, ptr %10, align 8, !tbaa !21
  store ptr %2, ptr %11, align 8, !tbaa !21
  store i64 %3, ptr %12, align 8, !tbaa !12
  store ptr %4, ptr %13, align 8, !tbaa !21
  store i64 %5, ptr %14, align 8, !tbaa !12
  store ptr %6, ptr %15, align 8, !tbaa !80
  call void @llvm.lifetime.start.p0(i64 8, ptr %16) #25
  call void @llvm.lifetime.start.p0(i64 8, ptr %17) #25
  call void @llvm.lifetime.start.p0(i64 8, ptr %18) #25
  call void @llvm.lifetime.start.p0(i64 8, ptr %19) #25
  call void @llvm.lifetime.start.p0(i64 4, ptr %20) #25
  call void @llvm.lifetime.start.p0(i64 8, ptr %21) #25
  call void @llvm.lifetime.start.p0(i64 8, ptr %22) #25
  %25 = load ptr, ptr %13, align 8, !tbaa !21
  %26 = icmp ne ptr %25, null
  br i1 %26, label %27, label %29

27:                                               ; preds = %7
  %28 = load i64, ptr %14, align 8, !tbaa !12
  store i64 %28, ptr %18, align 8, !tbaa !12
  br label %36

29:                                               ; preds = %7
  %30 = load i64, ptr %12, align 8, !tbaa !12
  %31 = icmp eq i64 %30, 0
  br i1 %31, label %32, label %33

32:                                               ; preds = %29
  store i64 1, ptr %18, align 8, !tbaa !12
  br label %35

33:                                               ; preds = %29
  %34 = load i64, ptr %12, align 8, !tbaa !12
  store i64 %34, ptr %18, align 8, !tbaa !12
  br label %35

35:                                               ; preds = %33, %32
  br label %36

36:                                               ; preds = %35, %27
  %37 = load ptr, ptr %9, align 8, !tbaa !21
  %38 = load ptr, ptr %10, align 8, !tbaa !21
  %39 = call ptr @rb_econv_open(ptr noundef %37, ptr noundef %38, i32 noundef 0)
  store ptr %39, ptr %19, align 8, !tbaa !30
  %40 = load ptr, ptr %19, align 8, !tbaa !30
  %41 = icmp eq ptr %40, null
  br i1 %41, label %42, label %43

42:                                               ; preds = %36
  store ptr null, ptr %8, align 8
  store i32 1, ptr %23, align 4
  br label %129

43:                                               ; preds = %36
  %44 = load ptr, ptr %13, align 8, !tbaa !21
  %45 = icmp ne ptr %44, null
  br i1 %45, label %46, label %48

46:                                               ; preds = %43
  %47 = load ptr, ptr %13, align 8, !tbaa !21
  store ptr %47, ptr %16, align 8, !tbaa !21
  br label %51

48:                                               ; preds = %43
  %49 = load i64, ptr %18, align 8, !tbaa !12
  %50 = call noalias nonnull ptr @ruby_xmalloc(i64 noundef %49) #27
  store ptr %50, ptr %16, align 8, !tbaa !21
  br label %51

51:                                               ; preds = %48, %46
  store i64 0, ptr %17, align 8, !tbaa !12
  %52 = load ptr, ptr %11, align 8, !tbaa !21
  store ptr %52, ptr %21, align 8, !tbaa !21
  %53 = load ptr, ptr %16, align 8, !tbaa !21
  %54 = load i64, ptr %17, align 8, !tbaa !12
  %55 = getelementptr i8, ptr %53, i64 %54
  store ptr %55, ptr %22, align 8, !tbaa !21
  %56 = load ptr, ptr %19, align 8, !tbaa !30
  %57 = load ptr, ptr %11, align 8, !tbaa !21
  %58 = load i64, ptr %12, align 8, !tbaa !12
  %59 = getelementptr i8, ptr %57, i64 %58
  %60 = load ptr, ptr %16, align 8, !tbaa !21
  %61 = load i64, ptr %18, align 8, !tbaa !12
  %62 = getelementptr i8, ptr %60, i64 %61
  %63 = call i32 @rb_econv_convert(ptr noundef %56, ptr noundef %21, ptr noundef %59, ptr noundef %22, ptr noundef %62, i32 noundef 0)
  store i32 %63, ptr %20, align 4, !tbaa !29
  %64 = load ptr, ptr %22, align 8, !tbaa !21
  %65 = load ptr, ptr %16, align 8, !tbaa !21
  %66 = ptrtoint ptr %64 to i64
  %67 = ptrtoint ptr %65 to i64
  %68 = sub i64 %66, %67
  store i64 %68, ptr %17, align 8, !tbaa !12
  br label %69

69:                                               ; preds = %95, %51
  %70 = load i32, ptr %20, align 4, !tbaa !29
  %71 = icmp eq i32 %70, 2
  br i1 %71, label %72, label %112

72:                                               ; preds = %69
  %73 = load i64, ptr %18, align 8, !tbaa !12
  %74 = icmp ult i64 9223372036854775807, %73
  br i1 %74, label %75, label %76

75:                                               ; preds = %72
  br label %121

76:                                               ; preds = %72
  %77 = load i64, ptr %18, align 8, !tbaa !12
  %78 = mul i64 %77, 2
  store i64 %78, ptr %18, align 8, !tbaa !12
  %79 = load ptr, ptr %16, align 8, !tbaa !21
  %80 = load ptr, ptr %13, align 8, !tbaa !21
  %81 = icmp eq ptr %79, %80
  br i1 %81, label %82, label %91

82:                                               ; preds = %76
  call void @llvm.lifetime.start.p0(i64 8, ptr %24) #25
  %83 = load i64, ptr %18, align 8, !tbaa !12
  %84 = call noalias nonnull ptr @ruby_xmalloc(i64 noundef %83) #27
  store ptr %84, ptr %24, align 8, !tbaa !21
  %85 = load ptr, ptr %24, align 8, !tbaa !21
  %86 = load ptr, ptr %16, align 8, !tbaa !21
  %87 = load i64, ptr %18, align 8, !tbaa !12
  %88 = udiv i64 %87, 2
  %89 = call nonnull ptr @ruby_nonempty_memcpy(ptr noundef %85, ptr noundef %86, i64 noundef %88) #28
  %90 = load ptr, ptr %24, align 8, !tbaa !21
  store ptr %90, ptr %16, align 8, !tbaa !21
  call void @llvm.lifetime.end.p0(i64 8, ptr %24) #25
  br label %95

91:                                               ; preds = %76
  %92 = load ptr, ptr %16, align 8, !tbaa !21
  %93 = load i64, ptr %18, align 8, !tbaa !12
  %94 = call nonnull ptr @ruby_xrealloc(ptr noundef %92, i64 noundef %93) #30
  store ptr %94, ptr %16, align 8, !tbaa !21
  br label %95

95:                                               ; preds = %91, %82
  %96 = load ptr, ptr %16, align 8, !tbaa !21
  %97 = load i64, ptr %17, align 8, !tbaa !12
  %98 = getelementptr i8, ptr %96, i64 %97
  store ptr %98, ptr %22, align 8, !tbaa !21
  %99 = load ptr, ptr %19, align 8, !tbaa !30
  %100 = load ptr, ptr %11, align 8, !tbaa !21
  %101 = load i64, ptr %12, align 8, !tbaa !12
  %102 = getelementptr i8, ptr %100, i64 %101
  %103 = load ptr, ptr %16, align 8, !tbaa !21
  %104 = load i64, ptr %18, align 8, !tbaa !12
  %105 = getelementptr i8, ptr %103, i64 %104
  %106 = call i32 @rb_econv_convert(ptr noundef %99, ptr noundef %21, ptr noundef %102, ptr noundef %22, ptr noundef %105, i32 noundef 0)
  store i32 %106, ptr %20, align 4, !tbaa !29
  %107 = load ptr, ptr %22, align 8, !tbaa !21
  %108 = load ptr, ptr %16, align 8, !tbaa !21
  %109 = ptrtoint ptr %107 to i64
  %110 = ptrtoint ptr %108 to i64
  %111 = sub i64 %109, %110
  store i64 %111, ptr %17, align 8, !tbaa !12
  br label %69, !llvm.loop !82

112:                                              ; preds = %69
  %113 = load i32, ptr %20, align 4, !tbaa !29
  %114 = icmp ne i32 %113, 4
  br i1 %114, label %115, label %116

115:                                              ; preds = %112
  br label %121

116:                                              ; preds = %112
  %117 = load ptr, ptr %19, align 8, !tbaa !30
  call void @rb_econv_close(ptr noundef %117)
  %118 = load i64, ptr %17, align 8, !tbaa !12
  %119 = load ptr, ptr %15, align 8, !tbaa !80
  store i64 %118, ptr %119, align 8, !tbaa !12
  %120 = load ptr, ptr %16, align 8, !tbaa !21
  store ptr %120, ptr %8, align 8
  store i32 1, ptr %23, align 4
  br label %129

121:                                              ; preds = %115, %75
  %122 = load ptr, ptr %16, align 8, !tbaa !21
  %123 = load ptr, ptr %13, align 8, !tbaa !21
  %124 = icmp ne ptr %122, %123
  br i1 %124, label %125, label %127

125:                                              ; preds = %121
  %126 = load ptr, ptr %16, align 8, !tbaa !21
  call void @ruby_xfree(ptr noundef %126)
  br label %127

127:                                              ; preds = %125, %121
  %128 = load ptr, ptr %19, align 8, !tbaa !30
  call void @rb_econv_close(ptr noundef %128)
  store ptr null, ptr %8, align 8
  store i32 1, ptr %23, align 4
  br label %129

129:                                              ; preds = %127, %116, %42
  call void @llvm.lifetime.end.p0(i64 8, ptr %22) #25
  call void @llvm.lifetime.end.p0(i64 8, ptr %21) #25
  call void @llvm.lifetime.end.p0(i64 4, ptr %20) #25
  call void @llvm.lifetime.end.p0(i64 8, ptr %19) #25
  call void @llvm.lifetime.end.p0(i64 8, ptr %18) #25
  call void @llvm.lifetime.end.p0(i64 8, ptr %17) #25
  call void @llvm.lifetime.end.p0(i64 8, ptr %16) #25
  %130 = load ptr, ptr %8, align 8
  ret ptr %130
}