; Function Attrs: nounwind sspstrong uwtable
define internal fastcc ptr @allocate_converted_string(ptr noundef %0, ptr noundef %1, ptr noundef %2, i64 noundef %3, ptr noundef %4, i64 noundef range(i64 0, 4097) %5, ptr noundef nonnull writeonly captures(none) %6) unnamed_addr #0 {
  %8 = alloca ptr, align 8
  %9 = alloca ptr, align 8
  call void @llvm.lifetime.start.p0(i64 8, ptr nonnull %8) #22
  call void @llvm.lifetime.start.p0(i64 8, ptr nonnull %9) #22
  %.not = icmp eq ptr %4, null
  %. = tail call i64 @llvm.umax.i64(i64 %3, i64 1)
  %.050 = select i1 %.not, i64 %., i64 %5
  %10 = tail call ptr @rb_econv_open(ptr noundef %0, ptr noundef %1, i32 noundef 0)
  %11 = icmp eq ptr %10, null
  br i1 %11, label %40, label %12

12:                                               ; preds = %7
  br i1 %.not, label %13, label %15

13:                                               ; preds = %12
  %14 = tail call noalias nonnull ptr @ruby_xmalloc(i64 noundef %.) #24
  br label %15

15:                                               ; preds = %12, %13
  %.049 = phi ptr [ %14, %13 ], [ %4, %12 ]
  store ptr %2, ptr %8, align 8, !tbaa !26
  store ptr %.049, ptr %9, align 8, !tbaa !26
  %16 = getelementptr i8, ptr %2, i64 %3
  %17 = getelementptr i8, ptr %.049, i64 %.050
  br label %18

18:                                               ; preds = %ruby_nonempty_memcpy.exit, %15
  %.sink = phi ptr [ %35, %ruby_nonempty_memcpy.exit ], [ %17, %15 ]
  %.2.sink = phi ptr [ %.2, %ruby_nonempty_memcpy.exit ], [ %.049, %15 ]
  %.151 = phi i64 [ %27, %ruby_nonempty_memcpy.exit ], [ %.050, %15 ]
  %19 = call i32 @rb_econv_convert(ptr noundef nonnull %10, ptr noundef nonnull %8, ptr noundef %16, ptr noundef nonnull %9, ptr noundef %.sink, i32 noundef 0)
  %20 = load ptr, ptr %9, align 8, !tbaa !26
  %21 = ptrtoint ptr %20 to i64
  %22 = ptrtoint ptr %.2.sink to i64
  %23 = sub i64 %21, %22
  switch i32 %19, label %37 [
    i32 2, label %24
    i32 4, label %36
  ]

24:                                               ; preds = %18
  %25 = icmp slt i64 %.151, 0
  br i1 %25, label %37, label %26

26:                                               ; preds = %24
  %27 = shl nuw i64 %.151, 1
  %28 = icmp eq ptr %.2.sink, %4
  br i1 %28, label %29, label %32

29:                                               ; preds = %26
  %30 = call noalias nonnull ptr @ruby_xmalloc(i64 noundef %27) #24
  %.not.i = icmp eq i64 %.151, 0
  br i1 %.not.i, label %ruby_nonempty_memcpy.exit, label %31

31:                                               ; preds = %29
  call void @llvm.memcpy.p0.p0.i64(ptr noundef nonnull align 1 %30, ptr noundef nonnull readonly align 1 %.2.sink, i64 noundef range(i64 1, 0) %.151, i1 noundef false) #22
  br label %ruby_nonempty_memcpy.exit

32:                                               ; preds = %26
  %33 = call nonnull ptr @ruby_xrealloc(ptr noundef nonnull %.2.sink, i64 noundef %27) #27
  br label %ruby_nonempty_memcpy.exit

ruby_nonempty_memcpy.exit:                        ; preds = %31, %29, %32
  %.2 = phi ptr [ %33, %32 ], [ %30, %29 ], [ %30, %31 ]
  %34 = getelementptr i8, ptr %.2, i64 %23
  store ptr %34, ptr %9, align 8, !tbaa !26
  %35 = getelementptr i8, ptr %.2, i64 %27
  br label %18, !llvm.loop !98

36:                                               ; preds = %18
  call void @rb_econv_close(ptr noundef nonnull %10)
  store i64 %23, ptr %6, align 8, !tbaa !22
  br label %40

37:                                               ; preds = %18, %24
  %.not57 = icmp eq ptr %.2.sink, %4
  br i1 %.not57, label %39, label %38

38:                                               ; preds = %37
  call void @ruby_xfree(ptr noundef nonnull %.2.sink) #22
  br label %39

39:                                               ; preds = %38, %37
  call void @rb_econv_close(ptr noundef nonnull %10)
  br label %40

40:                                               ; preds = %7, %39, %36
  %.0 = phi ptr [ null, %39 ], [ %.2.sink, %36 ], [ null, %7 ]
  call void @llvm.lifetime.end.p0(i64 8, ptr nonnull %9) #22
  call void @llvm.lifetime.end.p0(i64 8, ptr nonnull %8) #22
  ret ptr %.0
}